; Function Attrs: mustprogress nounwind uwtable
define internal fastcc void @_ZN12_GLOBAL__N_114MDFieldPrinter8printTagEPKN4llvm6DINodeE(ptr nocapture noundef nonnull align 8 dereferenceable(32) %0, ptr noundef %1) unnamed_addr #1 align 2 {
  %3 = load ptr, ptr %0, align 8
  %4 = getelementptr inbounds nuw i8, ptr %0, i64 8
  %5 = load i8, ptr %4, align 8
  %6 = trunc i8 %5 to i1
  br i1 %6, label %7, label %8

7:                                                ; preds = %2
  store i8 0, ptr %4, align 8
  br label %_ZN12_GLOBAL__N_1lsERN4llvm11raw_ostreamERNS_14FieldSeparatorE.exit

8:                                                ; preds = %2
  %9 = getelementptr inbounds i8, ptr %0, i64 16
  %10 = load ptr, ptr %9, align 8
  %.not.i.i.i = icmp eq ptr %10, null
  br i1 %.not.i.i.i, label %_ZN12_GLOBAL__N_1lsERN4llvm11raw_ostreamERNS_14FieldSeparatorE.exit, label %_ZN4llvm9StringRefC2EPKc.exit.i.i

_ZN4llvm9StringRefC2EPKc.exit.i.i:                ; preds = %8
  %11 = tail call noundef i64 @strlen(ptr noundef nonnull dereferenceable(1) %10) #25
  %12 = getelementptr inbounds nuw i8, ptr %3, i64 24
  %13 = load ptr, ptr %12, align 8
  %14 = getelementptr inbounds nuw i8, ptr %3, i64 32
  %15 = load ptr, ptr %14, align 8
  %16 = ptrtoint ptr %13 to i64
  %17 = ptrtoint ptr %15 to i64
  %18 = sub i64 %16, %17
  %19 = icmp ugt i64 %11, %18
  br i1 %19, label %20, label %22

20:                                               ; preds = %_ZN4llvm9StringRefC2EPKc.exit.i.i
  %21 = tail call noundef nonnull align 8 dereferenceable(48) ptr @_ZN4llvm11raw_ostream5writeEPKcm(ptr noundef nonnull align 8 dereferenceable(48) %3, ptr noundef nonnull %10, i64 noundef %11) #25
  br label %_ZN12_GLOBAL__N_1lsERN4llvm11raw_ostreamERNS_14FieldSeparatorE.exit

22:                                               ; preds = %_ZN4llvm9StringRefC2EPKc.exit.i.i
  %.not.i2.i.i = icmp eq i64 %11, 0
  br i1 %.not.i2.i.i, label %_ZN12_GLOBAL__N_1lsERN4llvm11raw_ostreamERNS_14FieldSeparatorE.exit, label %23

23:                                               ; preds = %22
  tail call void @llvm.memcpy.p0.p0.i64(ptr align 1 %15, ptr nonnull align 1 %10, i64 %11, i1 false)
  %24 = load ptr, ptr %14, align 8
  %25 = getelementptr inbounds i8, ptr %24, i64 %11
  store ptr %25, ptr %14, align 8
  br label %_ZN12_GLOBAL__N_1lsERN4llvm11raw_ostreamERNS_14FieldSeparatorE.exit

_ZN12_GLOBAL__N_1lsERN4llvm11raw_ostreamERNS_14FieldSeparatorE.exit: ; preds = %7, %8, %20, %22, %23
  %.0.i = phi ptr [ %3, %7 ], [ %21, %20 ], [ %3, %23 ], [ %3, %22 ], [ %3, %8 ]
  %26 = getelementptr inbounds nuw i8, ptr %.0.i, i64 24
  %27 = load ptr, ptr %26, align 8
  %28 = getelementptr inbounds nuw i8, ptr %.0.i, i64 32
  %29 = load ptr, ptr %28, align 8
  %30 = ptrtoint ptr %27 to i64
  %31 = ptrtoint ptr %29 to i64
  %32 = sub i64 %30, %31
  %33 = icmp ult i64 %32, 5
  br i1 %33, label %34, label %36

34:                                               ; preds = %_ZN12_GLOBAL__N_1lsERN4llvm11raw_ostreamERNS_14FieldSeparatorE.exit
  %35 = tail call noundef nonnull align 8 dereferenceable(48) ptr @_ZN4llvm11raw_ostream5writeEPKcm(ptr noundef nonnull align 8 dereferenceable(48) %.0.i, ptr noundef nonnull @.str.162, i64 noundef 5) #25
  br label %_ZN4llvm11raw_ostreamlsEPKc.exit

36:                                               ; preds = %_ZN12_GLOBAL__N_1lsERN4llvm11raw_ostreamERNS_14FieldSeparatorE.exit
  tail call void @llvm.memcpy.p0.p0.i64(ptr noundef nonnull align 1 dereferenceable(5) %29, ptr noundef nonnull align 1 dereferenceable(5) @.str.162, i64 5, i1 false)
  %37 = load ptr, ptr %28, align 8
  %38 = getelementptr inbounds i8, ptr %37, i64 5
  store ptr %38, ptr %28, align 8
  br label %_ZN4llvm11raw_ostreamlsEPKc.exit

_ZN4llvm11raw_ostreamlsEPKc.exit:                 ; preds = %34, %36
  %39 = tail call noundef zeroext i16 @_ZNK4llvm6DINode6getTagEv(ptr noundef nonnull align 8 dereferenceable(16) %1) #25
  %40 = zext i16 %39 to i32
  %41 = tail call { ptr, i64 } @_ZN4llvm5dwarf9TagStringEj(i32 noundef %40) #25
  %42 = extractvalue { ptr, i64 } %41, 0
  %43 = extractvalue { ptr, i64 } %41, 1
  %44 = icmp eq i64 %43, 0
  %45 = load ptr, ptr %0, align 8
  br i1 %44, label %60, label %46

46:                                               ; preds = %_ZN4llvm11raw_ostreamlsEPKc.exit
  %47 = getelementptr inbounds nuw i8, ptr %45, i64 24
  %48 = load ptr, ptr %47, align 8
  %49 = getelementptr inbounds nuw i8, ptr %45, i64 32
  %50 = load ptr, ptr %49, align 8
  %51 = ptrtoint ptr %48 to i64
  %52 = ptrtoint ptr %50 to i64
  %53 = sub i64 %51, %52
  %54 = icmp ugt i64 %43, %53
  br i1 %54, label %55, label %57

55:                                               ; preds = %46
  %56 = tail call noundef nonnull align 8 dereferenceable(48) ptr @_ZN4llvm11raw_ostream5writeEPKcm(ptr noundef nonnull align 8 dereferenceable(48) %45, ptr noundef %42, i64 noundef %43) #25
  br label %_ZN4llvm11raw_ostreamlsENS_9StringRefE.exit

57:                                               ; preds = %46
  tail call void @llvm.memcpy.p0.p0.i64(ptr align 1 %50, ptr align 1 %42, i64 %43, i1 false)
  %58 = load ptr, ptr %49, align 8
  %59 = getelementptr inbounds i8, ptr %58, i64 %43
  store ptr %59, ptr %49, align 8
  br label %_ZN4llvm11raw_ostreamlsENS_9StringRefE.exit

60:                                               ; preds = %_ZN4llvm11raw_ostreamlsEPKc.exit
  %61 = tail call noundef zeroext i16 @_ZNK4llvm6DINode6getTagEv(ptr noundef nonnull align 8 dereferenceable(16) %1) #25
  %62 = zext i16 %61 to i64
  %63 = tail call noundef nonnull align 8 dereferenceable(48) ptr @_ZN4llvm11raw_ostreamlsEl(ptr noundef nonnull align 8 dereferenceable(48) %45, i64 noundef %62) #25
  br label %_ZN4llvm11raw_ostreamlsENS_9StringRefE.exit

_ZN4llvm11raw_ostreamlsENS_9StringRefE.exit:      ; preds = %57, %55, %60
  ret void
}